target datalayout = "e-m:e-p270:32:32-p271:32:32-p272:64:64-i64:64-i128:128-f80:128-n8:16:32:64-S128"
target triple = "x86_64-pc-linux-gnu"

%struct.slurm_conf_t = type { i64, ptr, i16, ptr, ptr, ptr, ptr, ptr, i16, ptr, ptr, ptr, ptr, ptr, ptr, ptr, i16, ptr, ptr, ptr, ptr, i16, ptr, ptr, ptr, i64, ptr, ptr, ptr, ptr, i16, ptr, ptr, i16, i32, ptr, i32, ptr, i32, i32, ptr, ptr, i64, i64, ptr, i16, i16, ptr, i32, i32, ptr, i32, ptr, i32, i16, i16, i16, ptr, i16, i16, ptr, ptr, i32, i16, i16, ptr, i32, i16, ptr, ptr, ptr, ptr, i16, ptr, ptr, ptr, ptr, i32, ptr, ptr, ptr, ptr, i16, i16, ptr, i32, i32, i32, i16, i16, ptr, ptr, i16, ptr, ptr, i32, i32, i32, i32, i32, i64, i32, i32, i16, ptr, ptr, i32, ptr, ptr, ptr, i16, i32, ptr, ptr, i16, ptr, ptr, i32, i16, ptr, ptr, ptr, ptr, i32, i32, i16, i16, i32, ptr, i16, ptr, i32, i32, i32, i32, i32, i32, ptr, i16, ptr, ptr, i32, i16, ptr, i32, i16, i16, ptr, ptr, ptr, i16, ptr, ptr, ptr, ptr, i16, i16, ptr, i16, ptr, i16, ptr, i16, ptr, i16, ptr, ptr, ptr, ptr, i16, ptr, ptr, ptr, i32, ptr, i32, ptr, ptr, i16, ptr, ptr, i32, i16, ptr, ptr, i16, i16, ptr, i16, ptr, ptr, ptr, i32, ptr, i16, i16, ptr, ptr, ptr, ptr, ptr, ptr, ptr, ptr, i16, i32, i16, ptr, ptr, ptr, ptr, i32, ptr, ptr, ptr, i16, ptr, ptr, ptr, i16, ptr, i16, ptr, i16, i16, ptr }
%struct.data_s = type { i32, i32, %union.anon }
%union.anon = type { ptr }

@.str = private unnamed_addr constant [7 x i8] c"data.c\00", align 1
@__func__.data_new = private unnamed_addr constant [9 x i8] c"data_new\00", align 1
@slurm_conf = external global %struct.slurm_conf_t, align 8
@.str.1 = private unnamed_addr constant [18 x i8] c"DATA: %s: new %pD\00", align 1
@.str.6 = private unnamed_addr constant [5 x i8] c"true\00", align 1
@.str.7 = private unnamed_addr constant [6 x i8] c"false\00", align 1
@.str.25 = private unnamed_addr constant [27 x i8] c"DATA: %s: converted %pD=%s\00", align 1
@__func__.data_copy_bool_converted = private unnamed_addr constant [25 x i8] c"data_copy_bool_converted\00", align 1

; Function Attrs: nounwind uwtable
define internal void @_check_data_list_magic(ptr noundef %0) #0 {
  %2 = alloca ptr, align 8
  store ptr %0, ptr %2, align 8
  ret void
}

; Function Attrs: nounwind uwtable
define dso_local zeroext i1 @data_get_bool(ptr noundef %0) #0 {
  %2 = alloca i1, align 1
  %3 = alloca ptr, align 8
  store ptr %0, ptr %3, align 8
  %4 = load ptr, ptr %3, align 8
  call void @_check_magic(ptr noundef %4)
  %5 = load ptr, ptr %3, align 8
  %6 = icmp ne ptr %5, null
  br i1 %6, label %8, label %7

7:                                                ; preds = %1
  store i1 false, ptr %2, align 1
  br label %13

8:                                                ; preds = %1
  %9 = load ptr, ptr %3, align 8
  %10 = getelementptr inbounds nuw %struct.data_s, ptr %9, i32 0, i32 2
  %11 = load i8, ptr %10, align 8, !range !11, !noundef !12
  %12 = trunc i8 %11 to i1
  store i1 %12, ptr %2, align 1
  br label %13

13:                                               ; preds = %8, %7
  %14 = load i1, ptr %2, align 1
  ret i1 %14
}

; Function Attrs: nounwind uwtable
define dso_local ptr @data_new() #0 {
  %1 = alloca ptr, align 8
  call void @llvm.lifetime.start.p0(i64 8, ptr %1) #10
  %2 = call ptr @slurm_xcalloc(i64 noundef 1, i64 noundef 16, i1 noundef zeroext true, i1 noundef zeroext false, ptr noundef @.str, i32 noundef 389, ptr noundef @__func__.data_new)
  store ptr %2, ptr %1, align 8
  %3 = load ptr, ptr %1, align 8
  %4 = getelementptr inbounds nuw %struct.data_s, ptr %3, i32 0, i32 0
  store i32 429004959, ptr %4, align 8
  %5 = load ptr, ptr %1, align 8
  %6 = getelementptr inbounds nuw %struct.data_s, ptr %5, i32 0, i32 1
  store i32 65281, ptr %6, align 4
  br label %7

7:                                                ; preds = %0
  %8 = load i64, ptr getelementptr inbounds nuw (%struct.slurm_conf_t, ptr @slurm_conf, i32 0, i32 42), align 8
  %9 = and i64 %8, 256
  %10 = icmp ne i64 %9, 0
  br i1 %10, label %11, label %20

11:                                               ; preds = %7
  br label %12

12:                                               ; preds = %11
  %13 = call i32 @get_log_level()
  %14 = icmp sge i32 %13, 4
  br i1 %14, label %15, label %17

15:                                               ; preds = %12
  %16 = load ptr, ptr %1, align 8
  call void (i32, ptr, ...) @log_var(i32 noundef 4, ptr noundef @.str.1, ptr noundef @__func__.data_new, ptr noundef %16)
  br label %17

17:                                               ; preds = %15, %12
  br label %18

18:                                               ; preds = %17
  br label %19

19:                                               ; preds = %18
  br label %20

20:                                               ; preds = %19, %7
  br label %21

21:                                               ; preds = %20
  br label %22

22:                                               ; preds = %21
  %23 = load ptr, ptr %1, align 8
  call void @llvm.lifetime.end.p0(i64 8, ptr %1) #10
  ret ptr %23
}

; Function Attrs: nounwind uwtable
define internal void @_check_magic(ptr noundef %0) #0 {
  %2 = alloca ptr, align 8
  store ptr %0, ptr %2, align 8
  %3 = load ptr, ptr %2, align 8
  %4 = icmp ne ptr %3, null
  br i1 %4, label %6, label %5

5:                                                ; preds = %1
  br label %29

6:                                                ; preds = %1
  %7 = load i64, ptr getelementptr inbounds nuw (%struct.slurm_conf_t, ptr @slurm_conf, i32 0, i32 42), align 8
  %8 = and i64 %7, 256
  %9 = icmp ne i64 %8, 0
  br i1 %9, label %10, label %29

10:                                               ; preds = %6
  %11 = load ptr, ptr %2, align 8
  %12 = getelementptr inbounds nuw %struct.data_s, ptr %11, i32 0, i32 1
  %13 = load i32, ptr %12, align 4
  %14 = icmp eq i32 %13, 65282
  br i1 %14, label %15, label %19

15:                                               ; preds = %10
  %16 = load ptr, ptr %2, align 8
  %17 = getelementptr inbounds nuw %struct.data_s, ptr %16, i32 0, i32 2
  %18 = load ptr, ptr %17, align 8
  call void @_check_data_list_magic(ptr noundef %18)
  br label %19

19:                                               ; preds = %15, %10
  %20 = load ptr, ptr %2, align 8
  %21 = getelementptr inbounds nuw %struct.data_s, ptr %20, i32 0, i32 1
  %22 = load i32, ptr %21, align 4
  %23 = icmp eq i32 %22, 65283
  br i1 %23, label %24, label %28

24:                                               ; preds = %19
  %25 = load ptr, ptr %2, align 8
  %26 = getelementptr inbounds nuw %struct.data_s, ptr %25, i32 0, i32 2
  %27 = load ptr, ptr %26, align 8
  call void @_check_data_list_magic(ptr noundef %27)
  br label %28

28:                                               ; preds = %24, %19
  br label %29

29:                                               ; preds = %5, %28, %6
  ret void
}

; Function Attrs: nounwind uwtable
define dso_local i32 @data_copy_bool_converted(ptr noundef %0, ptr noundef %1) #0 {
  %3 = alloca i32, align 4
  %4 = alloca ptr, align 8
  %5 = alloca ptr, align 8
  %6 = alloca i32, align 4
  %7 = alloca i32, align 4
  %8 = alloca ptr, align 8
  store ptr %0, ptr %4, align 8
  store ptr %1, ptr %5, align 8
  %9 = load ptr, ptr %4, align 8
  call void @_check_magic(ptr noundef %9)
  call void @llvm.lifetime.start.p0(i64 4, ptr %6) #10
  store i32 9202, ptr %6, align 4
  %10 = load ptr, ptr %4, align 8
  %11 = icmp ne ptr %10, null
  br i1 %11, label %12, label %15

12:                                               ; preds = %2
  %13 = load ptr, ptr %5, align 8
  %14 = icmp ne ptr %13, null
  br i1 %14, label %16, label %15

15:                                               ; preds = %12, %2
  store i32 9201, ptr %3, align 4
  store i32 1, ptr %7, align 4
  br label %69

16:                                               ; preds = %12
  %17 = load ptr, ptr %4, align 8
  %18 = getelementptr inbounds nuw %struct.data_s, ptr %17, i32 0, i32 1
  %19 = load i32, ptr %18, align 4
  %20 = icmp ne i32 %19, 65288
  br i1 %20, label %21, label %64

21:                                               ; preds = %16
  call void @llvm.lifetime.start.p0(i64 8, ptr %8) #10
  %22 = call ptr @data_new()
  store ptr %22, ptr %8, align 8
  %23 = load ptr, ptr %8, align 8
  %24 = load ptr, ptr %4, align 8
  %25 = call ptr @data_copy(ptr noundef %23, ptr noundef %24)
  %26 = load ptr, ptr %8, align 8
  %27 = call i32 @data_convert_type(ptr noundef %26, i32 noundef 7)
  %28 = icmp eq i32 %27, 7
  br i1 %28, label %29, label %34

29:                                               ; preds = %21
  %30 = load ptr, ptr %8, align 8
  %31 = call zeroext i1 @data_get_bool(ptr noundef %30)
  %32 = load ptr, ptr %5, align 8
  %33 = zext i1 %31 to i8
  store i8 %33, ptr %32, align 1
  store i32 0, ptr %6, align 4
  br label %34

34:                                               ; preds = %29, %21
  br label %35

35:                                               ; preds = %34
  %36 = load ptr, ptr %8, align 8
  %37 = icmp ne ptr %36, null
  br i1 %37, label %38, label %40

38:                                               ; preds = %35
  %39 = load ptr, ptr %8, align 8
  call void @data_free(ptr noundef %39)
  br label %40

40:                                               ; preds = %38, %35
  store ptr null, ptr %8, align 8
  br label %41

41:                                               ; preds = %40
  br label %42

42:                                               ; preds = %41
  br label %43

43:                                               ; preds = %42
  %44 = load i64, ptr getelementptr inbounds nuw (%struct.slurm_conf_t, ptr @slurm_conf, i32 0, i32 42), align 8
  %45 = and i64 %44, 256
  %46 = icmp ne i64 %45, 0
  br i1 %46, label %47, label %60

47:                                               ; preds = %43
  br label %48

48:                                               ; preds = %47
  %49 = call i32 @get_log_level()
  %50 = icmp sge i32 %49, 4
  br i1 %50, label %51, label %57

51:                                               ; preds = %48
  %52 = load ptr, ptr %4, align 8
  %53 = load ptr, ptr %5, align 8
  %54 = load i8, ptr %53, align 1, !range !11, !noundef !12
  %55 = trunc i8 %54 to i1
  %56 = select i1 %55, ptr @.str.6, ptr @.str.7
  call void (i32, ptr, ...) @log_var(i32 noundef 4, ptr noundef @.str.25, ptr noundef @__func__.data_copy_bool_converted, ptr noundef %52, ptr noundef %56)
  br label %57

57:                                               ; preds = %51, %48
  br label %58

58:                                               ; preds = %57
  br label %59

59:                                               ; preds = %58
  br label %60

60:                                               ; preds = %59, %43
  br label %61

61:                                               ; preds = %60
  br label %62

62:                                               ; preds = %61
  %63 = load i32, ptr %6, align 4
  store i32 %63, ptr %3, align 4
  store i32 1, ptr %7, align 4
  call void @llvm.lifetime.end.p0(i64 8, ptr %8) #10
  br label %69

64:                                               ; preds = %16
  %65 = load ptr, ptr %4, align 8
  %66 = call zeroext i1 @data_get_bool(ptr noundef %65)
  %67 = load ptr, ptr %5, align 8
  %68 = zext i1 %66 to i8
  store i8 %68, ptr %67, align 1
  store i32 0, ptr %3, align 4
  store i32 1, ptr %7, align 4
  br label %69

69:                                               ; preds = %64, %62, %15
  call void @llvm.lifetime.end.p0(i64 4, ptr %6) #10
  %70 = load i32, ptr %3, align 4
  ret i32 %70
}