; Function Attrs: nounwind uwtable
define dso_local range(i32 0, 9203) i32 @data_copy_bool_converted(ptr noundef %0, ptr noundef captures(address_is_null) %1) local_unnamed_addr #0 {
  %3 = icmp ne ptr %0, null
  %4 = icmp ne ptr %1, null
  %or.cond = and i1 %3, %4
  br i1 %or.cond, label %5, label %34

5:                                                ; preds = %2
  %6 = getelementptr inbounds nuw i8, ptr %0, i64 4
  %7 = load i32, ptr %6, align 4
  %.not = icmp eq i32 %7, 65288
  br i1 %.not, label %data_get_bool.exit26, label %8

8:                                                ; preds = %5
  %9 = tail call ptr @slurm_xcalloc(i64 noundef 1, i64 noundef 16, i1 noundef zeroext true, i1 noundef zeroext false, ptr noundef nonnull @.str, i32 noundef 389, ptr noundef nonnull @__func__.data_new) #16
  store i32 429004959, ptr %9, align 8
  %10 = getelementptr inbounds nuw i8, ptr %9, i64 4
  store i32 65281, ptr %10, align 4
  %11 = load i64, ptr getelementptr inbounds nuw (i8, ptr @slurm_conf, i64 320), align 8
  %12 = and i64 %11, 256
  %.not.i = icmp eq i64 %12, 0
  br i1 %.not.i, label %data_new.exit, label %13

13:                                               ; preds = %8
  %14 = tail call i32 @get_log_level() #16
  %15 = icmp sgt i32 %14, 3
  br i1 %15, label %16, label %data_new.exit

16:                                               ; preds = %13
  tail call void (i32, ptr, ...) @log_var(i32 noundef 4, ptr noundef nonnull @.str.1, ptr noundef nonnull @__func__.data_new, ptr noundef nonnull %9) #16
  br label %data_new.exit

data_new.exit:                                    ; preds = %8, %13, %16
  %17 = tail call ptr @data_copy(ptr noundef nonnull %9, ptr noundef nonnull %0)
  %18 = tail call i32 @data_convert_type(ptr noundef nonnull %9, i32 noundef 7)
  %19 = icmp eq i32 %18, 7
  br i1 %19, label %data_get_bool.exit, label %22

data_get_bool.exit:                               ; preds = %data_new.exit
  %20 = getelementptr inbounds nuw i8, ptr %9, i64 8
  %21 = load i8, ptr %20, align 8, !range !19, !noundef !20
  store i8 %21, ptr %1, align 1
  br label %22

22:                                               ; preds = %data_new.exit, %data_get_bool.exit
  %.0 = phi i32 [ 0, %data_get_bool.exit ], [ 9202, %data_new.exit ]
  tail call void @data_free(ptr noundef nonnull %9)
  %23 = load i64, ptr getelementptr inbounds nuw (i8, ptr @slurm_conf, i64 320), align 8
  %24 = and i64 %23, 256
  %.not22 = icmp eq i64 %24, 0
  br i1 %.not22, label %34, label %25

25:                                               ; preds = %22
  %26 = tail call i32 @get_log_level() #16
  %27 = icmp sgt i32 %26, 3
  br i1 %27, label %28, label %34

28:                                               ; preds = %25
  %29 = load i8, ptr %1, align 1, !range !19, !noundef !20
  %30 = trunc nuw i8 %29 to i1
  %31 = select i1 %30, ptr @.str.6, ptr @.str.7
  tail call void (i32, ptr, ...) @log_var(i32 noundef 4, ptr noundef nonnull @.str.25, ptr noundef nonnull @__func__.data_copy_bool_converted, ptr noundef nonnull %0, ptr noundef nonnull %31) #16
  br label %34

data_get_bool.exit26:                             ; preds = %5
  %32 = getelementptr inbounds nuw i8, ptr %0, i64 8
  %33 = load i8, ptr %32, align 8, !range !19, !noundef !20
  store i8 %33, ptr %1, align 1
  br label %34

34:                                               ; preds = %22, %28, %25, %2, %data_get_bool.exit26
  %.017 = phi i32 [ 0, %data_get_bool.exit26 ], [ 9201, %2 ], [ %.0, %25 ], [ %.0, %28 ], [ %.0, %22 ]
  ret i32 %.017
}